target datalayout = "e-m:e-p270:32:32-p271:32:32-p272:64:64-i64:64-i128:128-f80:128-n8:16:32:64-S128"
target triple = "x86_64-pc-linux-gnu"

%struct.prov_cipher_ctx_st = type { [16 x i8], [16 x i8], [16 x i8], ptr, %union.anon, i32, i64, i64, i64, i64, i32, i8, i32, ptr, i32, i64, i32, i64, i32, ptr, ptr, ptr }
%union.anon = type { ptr }

@.str.1 = private unnamed_addr constant [9 x i8] c"cts_mode\00", align 1
@.str.2 = private unnamed_addr constant [69 x i8] c"../openssl/providers/implementations/ciphers/cipher_camellia_cts.inc\00", align 1
@__func__.camellia_cbc_cts_get_ctx_params = private unnamed_addr constant [32 x i8] c"camellia_cbc_cts_get_ctx_params\00", align 1

; Function Attrs: nounwind uwtable
define internal i32 @camellia_cbc_cts_get_ctx_params(ptr noundef %0, ptr noundef %1) #0 {
  %3 = alloca i32, align 4
  %4 = alloca ptr, align 8
  %5 = alloca ptr, align 8
  %6 = alloca ptr, align 8
  %7 = alloca ptr, align 8
  %8 = alloca ptr, align 8
  %9 = alloca i32, align 4
  store ptr %0, ptr %4, align 8, !tbaa !3
  store ptr %1, ptr %5, align 8, !tbaa !19
  call void @llvm.lifetime.start.p0(i64 8, ptr %6) #3
  %10 = load ptr, ptr %4, align 8, !tbaa !3
  store ptr %10, ptr %6, align 8, !tbaa !23
  call void @llvm.lifetime.start.p0(i64 8, ptr %7) #3
  %11 = load ptr, ptr %5, align 8, !tbaa !19
  %12 = call ptr @OSSL_PARAM_locate(ptr noundef %11, ptr noundef @.str.1)
  store ptr %12, ptr %7, align 8, !tbaa !19
  %13 = load ptr, ptr %7, align 8, !tbaa !19
  %14 = icmp ne ptr %13, null
  br i1 %14, label %15, label %32

15:                                               ; preds = %2
  call void @llvm.lifetime.start.p0(i64 8, ptr %8) #3
  %16 = load ptr, ptr %6, align 8, !tbaa !23
  %17 = getelementptr inbounds nuw %struct.prov_cipher_ctx_st, ptr %16, i32 0, i32 10
  %18 = load i32, ptr %17, align 8, !tbaa !25
  %19 = call ptr @ossl_cipher_cbc_cts_mode_id2name(i32 noundef %18)
  store ptr %19, ptr %8, align 8, !tbaa !21
  %20 = load ptr, ptr %8, align 8, !tbaa !21
  %21 = icmp eq ptr %20, null
  br i1 %21, label %27, label %22

22:                                               ; preds = %15
  %23 = load ptr, ptr %7, align 8, !tbaa !19
  %24 = load ptr, ptr %8, align 8, !tbaa !21
  %25 = call i32 @OSSL_PARAM_set_utf8_string(ptr noundef %23, ptr noundef %24)
  %26 = icmp ne i32 %25, 0
  br i1 %26, label %28, label %27

27:                                               ; preds = %22, %15
  call void @ERR_new()
  call void @ERR_set_debug(ptr noundef @.str.2, i32 noundef 56, ptr noundef @__func__.camellia_cbc_cts_get_ctx_params)
  call void (i32, i32, ptr, ...) @ERR_set_error(i32 noundef 57, i32 noundef 104, ptr noundef null)
  store i32 0, ptr %3, align 4
  store i32 1, ptr %9, align 4
  br label %29

28:                                               ; preds = %22
  store i32 0, ptr %9, align 4
  br label %29

29:                                               ; preds = %28, %27
  call void @llvm.lifetime.end.p0(i64 8, ptr %8) #3
  %30 = load i32, ptr %9, align 4
  switch i32 %30, label %36 [
    i32 0, label %31
  ]

31:                                               ; preds = %29
  br label %32

32:                                               ; preds = %31, %2
  %33 = load ptr, ptr %4, align 8, !tbaa !3
  %34 = load ptr, ptr %5, align 8, !tbaa !19
  %35 = call i32 @ossl_cipher_generic_get_ctx_params(ptr noundef %33, ptr noundef %34)
  store i32 %35, ptr %3, align 4
  store i32 1, ptr %9, align 4
  br label %36

36:                                               ; preds = %32, %29
  call void @llvm.lifetime.end.p0(i64 8, ptr %7) #3
  call void @llvm.lifetime.end.p0(i64 8, ptr %6) #3
  %37 = load i32, ptr %3, align 4
  ret i32 %37
}